target datalayout = "e-m:e-p270:32:32-p271:32:32-p272:64:64-i64:64-i128:128-f80:128-n8:16:32:64-S128"
target triple = "x86_64-pc-linux-gnu"

%struct.FFDrawContext = type { ptr, i32, i32, [4 x i32], [4 x i8], [4 x i8], i8, i8, i32, i32, i32, [3 x [3 x double]] }

; Function Attrs: nounwind uwtable
define internal ptr @pointer_at(ptr noundef %0, ptr noundef %1, ptr noundef %2, i32 noundef %3, i32 noundef %4, i32 noundef %5) #0 {
  %7 = alloca ptr, align 8
  %8 = alloca ptr, align 8
  %9 = alloca ptr, align 8
  %10 = alloca i32, align 4
  %11 = alloca i32, align 4
  %12 = alloca i32, align 4
  store ptr %0, ptr %7, align 8, !tbaa !24
  store ptr %1, ptr %8, align 8, !tbaa !52
  store ptr %2, ptr %9, align 8, !tbaa !55
  store i32 %3, ptr %10, align 4, !tbaa !9
  store i32 %4, ptr %11, align 4, !tbaa !9
  store i32 %5, ptr %12, align 4, !tbaa !9
  %13 = load ptr, ptr %8, align 8, !tbaa !52
  %14 = load i32, ptr %10, align 4, !tbaa !9
  %15 = sext i32 %14 to i64
  %16 = getelementptr inbounds ptr, ptr %13, i64 %15
  %17 = load ptr, ptr %16, align 8, !tbaa !4
  %18 = load i32, ptr %12, align 4, !tbaa !9
  %19 = load ptr, ptr %7, align 8, !tbaa !24
  %20 = getelementptr inbounds nuw %struct.FFDrawContext, ptr %19, i32 0, i32 5
  %21 = load i32, ptr %10, align 4, !tbaa !9
  %22 = sext i32 %21 to i64
  %23 = getelementptr inbounds [4 x i8], ptr %20, i64 0, i64 %22
  %24 = load i8, ptr %23, align 1, !tbaa !19
  %25 = zext i8 %24 to i32
  %26 = ashr i32 %18, %25
  %27 = load ptr, ptr %9, align 8, !tbaa !55
  %28 = load i32, ptr %10, align 4, !tbaa !9
  %29 = sext i32 %28 to i64
  %30 = getelementptr inbounds i32, ptr %27, i64 %29
  %31 = load i32, ptr %30, align 4, !tbaa !9
  %32 = mul nsw i32 %26, %31
  %33 = sext i32 %32 to i64
  %34 = getelementptr inbounds i8, ptr %17, i64 %33
  %35 = load i32, ptr %11, align 4, !tbaa !9
  %36 = load ptr, ptr %7, align 8, !tbaa !24
  %37 = getelementptr inbounds nuw %struct.FFDrawContext, ptr %36, i32 0, i32 4
  %38 = load i32, ptr %10, align 4, !tbaa !9
  %39 = sext i32 %38 to i64
  %40 = getelementptr inbounds [4 x i8], ptr %37, i64 0, i64 %39
  %41 = load i8, ptr %40, align 1, !tbaa !19
  %42 = zext i8 %41 to i32
  %43 = ashr i32 %35, %42
  %44 = load ptr, ptr %7, align 8, !tbaa !24
  %45 = getelementptr inbounds nuw %struct.FFDrawContext, ptr %44, i32 0, i32 3
  %46 = load i32, ptr %10, align 4, !tbaa !9
  %47 = sext i32 %46 to i64
  %48 = getelementptr inbounds [4 x i32], ptr %45, i64 0, i64 %47
  %49 = load i32, ptr %48, align 4, !tbaa !9
  %50 = mul nsw i32 %43, %49
  %51 = sext i32 %50 to i64
  %52 = getelementptr inbounds i8, ptr %34, i64 %51
  ret ptr %52
}

; Function Attrs: nounwind uwtable
define void @ff_copy_rectangle2(ptr noundef %0, ptr noundef %1, ptr noundef %2, ptr noundef %3, ptr noundef %4, i32 noundef %5, i32 noundef %6, i32 noundef %7, i32 noundef %8, i32 noundef %9, i32 noundef %10) #0 {
  %12 = alloca ptr, align 8
  %13 = alloca ptr, align 8
  %14 = alloca ptr, align 8
  %15 = alloca ptr, align 8
  %16 = alloca ptr, align 8
  %17 = alloca i32, align 4
  %18 = alloca i32, align 4
  %19 = alloca i32, align 4
  %20 = alloca i32, align 4
  %21 = alloca i32, align 4
  %22 = alloca i32, align 4
  %23 = alloca i32, align 4
  %24 = alloca i32, align 4
  %25 = alloca ptr, align 8
  %26 = alloca ptr, align 8
  %27 = alloca i32, align 4
  %28 = alloca i32, align 4
  %29 = alloca i32, align 4
  store ptr %0, ptr %12, align 8, !tbaa !24
  store ptr %1, ptr %13, align 8, !tbaa !52
  store ptr %2, ptr %14, align 8, !tbaa !55
  store ptr %3, ptr %15, align 8, !tbaa !52
  store ptr %4, ptr %16, align 8, !tbaa !55
  store i32 %5, ptr %17, align 4, !tbaa !9
  store i32 %6, ptr %18, align 4, !tbaa !9
  store i32 %7, ptr %19, align 4, !tbaa !9
  store i32 %8, ptr %20, align 4, !tbaa !9
  store i32 %9, ptr %21, align 4, !tbaa !9
  store i32 %10, ptr %22, align 4, !tbaa !9
  call void @llvm.lifetime.start.p0(i64 4, ptr %23) #8
  call void @llvm.lifetime.start.p0(i64 4, ptr %24) #8
  call void @llvm.lifetime.start.p0(i64 8, ptr %25) #8
  call void @llvm.lifetime.start.p0(i64 8, ptr %26) #8
  call void @llvm.lifetime.start.p0(i64 4, ptr %27) #8
  store i32 0, ptr %27, align 4, !tbaa !9
  br label %30

30:                                               ; preds = %171, %11
  %31 = load i32, ptr %27, align 4, !tbaa !9
  %32 = load ptr, ptr %12, align 8, !tbaa !24
  %33 = getelementptr inbounds nuw %struct.FFDrawContext, ptr %32, i32 0, i32 2
  %34 = load i32, ptr %33, align 4, !tbaa !37
  %35 = icmp ult i32 %31, %34
  br i1 %35, label %37, label %36

36:                                               ; preds = %30
  store i32 2, ptr %28, align 4
  call void @llvm.lifetime.end.p0(i64 4, ptr %27) #8
  br label %174

37:                                               ; preds = %30
  %38 = load ptr, ptr %12, align 8, !tbaa !24
  %39 = load ptr, ptr %15, align 8, !tbaa !52
  %40 = load ptr, ptr %16, align 8, !tbaa !55
  %41 = load i32, ptr %27, align 4, !tbaa !9
  %42 = load i32, ptr %19, align 4, !tbaa !9
  %43 = load i32, ptr %20, align 4, !tbaa !9
  %44 = call ptr @pointer_at(ptr noundef %38, ptr noundef %39, ptr noundef %40, i32 noundef %41, i32 noundef %42, i32 noundef %43)
  store ptr %44, ptr %25, align 8, !tbaa !4
  %45 = load ptr, ptr %12, align 8, !tbaa !24
  %46 = load ptr, ptr %13, align 8, !tbaa !52
  %47 = load ptr, ptr %14, align 8, !tbaa !55
  %48 = load i32, ptr %27, align 4, !tbaa !9
  %49 = load i32, ptr %17, align 4, !tbaa !9
  %50 = load i32, ptr %18, align 4, !tbaa !9
  %51 = call ptr @pointer_at(ptr noundef %45, ptr noundef %46, ptr noundef %47, i32 noundef %48, i32 noundef %49, i32 noundef %50)
  store ptr %51, ptr %26, align 8, !tbaa !4
  %52 = load ptr, ptr %12, align 8, !tbaa !24
  %53 = getelementptr inbounds nuw %struct.FFDrawContext, ptr %52, i32 0, i32 4
  %54 = load i32, ptr %27, align 4, !tbaa !9
  %55 = sext i32 %54 to i64
  %56 = getelementptr inbounds [4 x i8], ptr %53, i64 0, i64 %55
  %57 = load i8, ptr %56, align 1, !tbaa !19
  %58 = call i1 @llvm.is.constant.i8(i8 %57)
  br i1 %58, label %71, label %59

59:                                               ; preds = %37
  %60 = load i32, ptr %21, align 4, !tbaa !9
  %61 = sub nsw i32 0, %60
  %62 = load ptr, ptr %12, align 8, !tbaa !24
  %63 = getelementptr inbounds nuw %struct.FFDrawContext, ptr %62, i32 0, i32 4
  %64 = load i32, ptr %27, align 4, !tbaa !9
  %65 = sext i32 %64 to i64
  %66 = getelementptr inbounds [4 x i8], ptr %63, i64 0, i64 %65
  %67 = load i8, ptr %66, align 1, !tbaa !19
  %68 = zext i8 %67 to i32
  %69 = ashr i32 %61, %68
  %70 = sub nsw i32 0, %69
  br label %91

71:                                               ; preds = %37
  %72 = load i32, ptr %21, align 4, !tbaa !9
  %73 = load ptr, ptr %12, align 8, !tbaa !24
  %74 = getelementptr inbounds nuw %struct.FFDrawContext, ptr %73, i32 0, i32 4
  %75 = load i32, ptr %27, align 4, !tbaa !9
  %76 = sext i32 %75 to i64
  %77 = getelementptr inbounds [4 x i8], ptr %74, i64 0, i64 %76
  %78 = load i8, ptr %77, align 1, !tbaa !19
  %79 = zext i8 %78 to i32
  %80 = shl i32 1, %79
  %81 = add nsw i32 %72, %80
  %82 = sub nsw i32 %81, 1
  %83 = load ptr, ptr %12, align 8, !tbaa !24
  %84 = getelementptr inbounds nuw %struct.FFDrawContext, ptr %83, i32 0, i32 4
  %85 = load i32, ptr %27, align 4, !tbaa !9
  %86 = sext i32 %85 to i64
  %87 = getelementptr inbounds [4 x i8], ptr %84, i64 0, i64 %86
  %88 = load i8, ptr %87, align 1, !tbaa !19
  %89 = zext i8 %88 to i32
  %90 = ashr i32 %82, %89
  br label %91

91:                                               ; preds = %71, %59
  %92 = phi i32 [ %70, %59 ], [ %90, %71 ]
  %93 = load ptr, ptr %12, align 8, !tbaa !24
  %94 = getelementptr inbounds nuw %struct.FFDrawContext, ptr %93, i32 0, i32 3
  %95 = load i32, ptr %27, align 4, !tbaa !9
  %96 = sext i32 %95 to i64
  %97 = getelementptr inbounds [4 x i32], ptr %94, i64 0, i64 %96
  %98 = load i32, ptr %97, align 4, !tbaa !9
  %99 = mul nsw i32 %92, %98
  store i32 %99, ptr %23, align 4, !tbaa !9
  %100 = load ptr, ptr %12, align 8, !tbaa !24
  %101 = getelementptr inbounds nuw %struct.FFDrawContext, ptr %100, i32 0, i32 5
  %102 = load i32, ptr %27, align 4, !tbaa !9
  %103 = sext i32 %102 to i64
  %104 = getelementptr inbounds [4 x i8], ptr %101, i64 0, i64 %103
  %105 = load i8, ptr %104, align 1, !tbaa !19
  %106 = call i1 @llvm.is.constant.i8(i8 %105)
  br i1 %106, label %119, label %107

107:                                              ; preds = %91
  %108 = load i32, ptr %22, align 4, !tbaa !9
  %109 = sub nsw i32 0, %108
  %110 = load ptr, ptr %12, align 8, !tbaa !24
  %111 = getelementptr inbounds nuw %struct.FFDrawContext, ptr %110, i32 0, i32 5
  %112 = load i32, ptr %27, align 4, !tbaa !9
  %113 = sext i32 %112 to i64
  %114 = getelementptr inbounds [4 x i8], ptr %111, i64 0, i64 %113
  %115 = load i8, ptr %114, align 1, !tbaa !19
  %116 = zext i8 %115 to i32
  %117 = ashr i32 %109, %116
  %118 = sub nsw i32 0, %117
  br label %139

119:                                              ; preds = %91
  %120 = load i32, ptr %22, align 4, !tbaa !9
  %121 = load ptr, ptr %12, align 8, !tbaa !24
  %122 = getelementptr inbounds nuw %struct.FFDrawContext, ptr %121, i32 0, i32 5
  %123 = load i32, ptr %27, align 4, !tbaa !9
  %124 = sext i32 %123 to i64
  %125 = getelementptr inbounds [4 x i8], ptr %122, i64 0, i64 %124
  %126 = load i8, ptr %125, align 1, !tbaa !19
  %127 = zext i8 %126 to i32
  %128 = shl i32 1, %127
  %129 = add nsw i32 %120, %128
  %130 = sub nsw i32 %129, 1
  %131 = load ptr, ptr %12, align 8, !tbaa !24
  %132 = getelementptr inbounds nuw %struct.FFDrawContext, ptr %131, i32 0, i32 5
  %133 = load i32, ptr %27, align 4, !tbaa !9
  %134 = sext i32 %133 to i64
  %135 = getelementptr inbounds [4 x i8], ptr %132, i64 0, i64 %134
  %136 = load i8, ptr %135, align 1, !tbaa !19
  %137 = zext i8 %136 to i32
  %138 = ashr i32 %130, %137
  br label %139

139:                                              ; preds = %119, %107
  %140 = phi i32 [ %118, %107 ], [ %138, %119 ]
  store i32 %140, ptr %24, align 4, !tbaa !9
  call void @llvm.lifetime.start.p0(i64 4, ptr %29) #8
  store i32 0, ptr %29, align 4, !tbaa !9
  br label %141

141:                                              ; preds = %167, %139
  %142 = load i32, ptr %29, align 4, !tbaa !9
  %143 = load i32, ptr %24, align 4, !tbaa !9
  %144 = icmp slt i32 %142, %143
  br i1 %144, label %146, label %145

145:                                              ; preds = %141
  store i32 5, ptr %28, align 4
  call void @llvm.lifetime.end.p0(i64 4, ptr %29) #8
  br label %170

146:                                              ; preds = %141
  %147 = load ptr, ptr %26, align 8, !tbaa !4
  %148 = load ptr, ptr %25, align 8, !tbaa !4
  %149 = load i32, ptr %23, align 4, !tbaa !9
  %150 = sext i32 %149 to i64
  call void @llvm.memcpy.p0.p0.i64(ptr align 1 %147, ptr align 1 %148, i64 %150, i1 false)
  %151 = load ptr, ptr %16, align 8, !tbaa !55
  %152 = load i32, ptr %27, align 4, !tbaa !9
  %153 = sext i32 %152 to i64
  %154 = getelementptr inbounds i32, ptr %151, i64 %153
  %155 = load i32, ptr %154, align 4, !tbaa !9
  %156 = load ptr, ptr %25, align 8, !tbaa !4
  %157 = sext i32 %155 to i64
  %158 = getelementptr inbounds i8, ptr %156, i64 %157
  store ptr %158, ptr %25, align 8, !tbaa !4
  %159 = load ptr, ptr %14, align 8, !tbaa !55
  %160 = load i32, ptr %27, align 4, !tbaa !9
  %161 = sext i32 %160 to i64
  %162 = getelementptr inbounds i32, ptr %159, i64 %161
  %163 = load i32, ptr %162, align 4, !tbaa !9
  %164 = load ptr, ptr %26, align 8, !tbaa !4
  %165 = sext i32 %163 to i64
  %166 = getelementptr inbounds i8, ptr %164, i64 %165
  store ptr %166, ptr %26, align 8, !tbaa !4
  br label %167

167:                                              ; preds = %146
  %168 = load i32, ptr %29, align 4, !tbaa !9
  %169 = add nsw i32 %168, 1
  store i32 %169, ptr %29, align 4, !tbaa !9
  br label %141, !llvm.loop !57

170:                                              ; preds = %145
  br label %171

171:                                              ; preds = %170
  %172 = load i32, ptr %27, align 4, !tbaa !9
  %173 = add nsw i32 %172, 1
  store i32 %173, ptr %27, align 4, !tbaa !9
  br label %30, !llvm.loop !58

174:                                              ; preds = %36
  call void @llvm.lifetime.end.p0(i64 8, ptr %26) #8
  call void @llvm.lifetime.end.p0(i64 8, ptr %25) #8
  call void @llvm.lifetime.end.p0(i64 4, ptr %24) #8
  call void @llvm.lifetime.end.p0(i64 4, ptr %23) #8
  ret void
}