; Function Attrs: nofree norecurse nosync nounwind memory(readwrite, inaccessiblemem: none) uwtable
define void @ff_copy_rectangle2(ptr noundef readonly captures(none) %0, ptr noundef readonly captures(none) %1, ptr noundef readonly captures(none) %2, ptr noundef readonly captures(none) %3, ptr noundef readonly captures(none) %4, i32 noundef %5, i32 noundef %6, i32 noundef %7, i32 noundef %8, i32 noundef %9, i32 noundef %10) local_unnamed_addr #6 {
  %12 = getelementptr inbounds nuw i8, ptr %0, i64 12
  %13 = load i32, ptr %12, align 4, !tbaa !29
  %.not = icmp eq i32 %13, 0
  br i1 %.not, label %._crit_edge57, label %.lr.ph56

.lr.ph56:                                         ; preds = %11
  %14 = getelementptr inbounds nuw i8, ptr %0, i64 36
  %15 = getelementptr inbounds nuw i8, ptr %0, i64 32
  %16 = getelementptr inbounds nuw i8, ptr %0, i64 16
  %17 = sub nsw i32 0, %9
  %18 = sub nsw i32 0, %10
  br label %19

._crit_edge57:                                    ; preds = %._crit_edge, %11
  ret void

19:                                               ; preds = %.lr.ph56, %._crit_edge
  %20 = phi i32 [ %13, %.lr.ph56 ], [ %60, %._crit_edge ]
  %indvars.iv = phi i64 [ 0, %.lr.ph56 ], [ %indvars.iv.next, %._crit_edge ]
  %21 = getelementptr inbounds nuw [4 x i8], ptr %14, i64 0, i64 %indvars.iv
  %22 = load i8, ptr %21, align 1, !tbaa !15
  %23 = zext i8 %22 to i32
  %24 = getelementptr inbounds nuw i32, ptr %4, i64 %indvars.iv
  %25 = getelementptr inbounds nuw i32, ptr %2, i64 %indvars.iv
  %26 = ashr i32 %18, %23
  %27 = sub nsw i32 0, %26
  %28 = icmp slt i32 %26, 0
  br i1 %28, label %.lr.ph, label %._crit_edge

.lr.ph:                                           ; preds = %19
  %29 = getelementptr inbounds nuw [4 x i8], ptr %15, i64 0, i64 %indvars.iv
  %30 = load i8, ptr %29, align 1, !tbaa !15
  %31 = zext i8 %30 to i32
  %32 = ashr i32 %17, %31
  %33 = getelementptr inbounds nuw [4 x i32], ptr %16, i64 0, i64 %indvars.iv
  %34 = load i32, ptr %33, align 4, !tbaa !22
  %35 = mul i32 %32, %34
  %36 = sub i32 0, %35
  %37 = getelementptr inbounds nuw ptr, ptr %1, i64 %indvars.iv
  %38 = load ptr, ptr %37, align 8, !tbaa !42
  %39 = load i32, ptr %25, align 4, !tbaa !22
  %40 = ashr i32 %6, %23
  %41 = mul nsw i32 %39, %40
  %42 = sext i32 %41 to i64
  %43 = getelementptr inbounds i8, ptr %38, i64 %42
  %44 = ashr i32 %5, %31
  %45 = mul nsw i32 %44, %34
  %46 = sext i32 %45 to i64
  %47 = getelementptr inbounds i8, ptr %43, i64 %46
  %48 = getelementptr inbounds nuw ptr, ptr %3, i64 %indvars.iv
  %49 = load ptr, ptr %48, align 8, !tbaa !42
  %50 = ashr i32 %8, %23
  %51 = load i32, ptr %24, align 4, !tbaa !22
  %52 = mul nsw i32 %50, %51
  %53 = sext i32 %52 to i64
  %54 = getelementptr inbounds i8, ptr %49, i64 %53
  %55 = ashr i32 %7, %31
  %56 = mul nsw i32 %55, %34
  %57 = sext i32 %56 to i64
  %58 = getelementptr inbounds i8, ptr %54, i64 %57
  %59 = sext i32 %36 to i64
  br label %63

._crit_edge.loopexit:                             ; preds = %63
  %.pre = load i32, ptr %12, align 4, !tbaa !29
  br label %._crit_edge

._crit_edge:                                      ; preds = %._crit_edge.loopexit, %19
  %60 = phi i32 [ %.pre, %._crit_edge.loopexit ], [ %20, %19 ]
  %indvars.iv.next = add nuw nsw i64 %indvars.iv, 1
  %61 = zext i32 %60 to i64
  %62 = icmp samesign ult i64 %indvars.iv.next, %61
  br i1 %62, label %19, label %._crit_edge57, !llvm.loop !43

63:                                               ; preds = %.lr.ph, %63
  %.053 = phi i32 [ 0, %.lr.ph ], [ %70, %63 ]
  %.04952 = phi ptr [ %47, %.lr.ph ], [ %69, %63 ]
  %.05051 = phi ptr [ %58, %.lr.ph ], [ %66, %63 ]
  tail call void @llvm.memcpy.p0.p0.i64(ptr align 1 %.04952, ptr align 1 %.05051, i64 %59, i1 false)
  %64 = load i32, ptr %24, align 4, !tbaa !22
  %65 = sext i32 %64 to i64
  %66 = getelementptr inbounds i8, ptr %.05051, i64 %65
  %67 = load i32, ptr %25, align 4, !tbaa !22
  %68 = sext i32 %67 to i64
  %69 = getelementptr inbounds i8, ptr %.04952, i64 %68
  %70 = add nuw nsw i32 %.053, 1
  %exitcond.not = icmp eq i32 %70, %27
  br i1 %exitcond.not, label %._crit_edge.loopexit, label %63, !llvm.loop !44
}